target datalayout = "e-m:e-p270:32:32-p271:32:32-p272:64:64-i64:64-i128:128-f80:128-n8:16:32:64-S128"
target triple = "x86_64-pc-linux-gnu"

%struct.test_case = type { ptr, ptr, i32, i32, ptr, i32, i32 }

@stderr = external global ptr, align 8
@.str.2 = private unnamed_addr constant [28 x i8] c"Test index out of range: %d\00", align 1
@.str.5 = private unnamed_addr constant [1 x i8] zeroinitializer, align 1
@.str.22 = private unnamed_addr constant [10 x i8] c"#foo\0A#bar\00", align 1
@.str.23 = private unnamed_addr constant [12 x i8] c"A\0AAAA\0AAAAA\0A\00", align 1

; Function Attrs: nounwind uwtable
define internal i32 @quotrem(i32 noundef %0, i32 noundef %1, ptr noundef %2) #0 {
  %4 = alloca i32, align 4
  %5 = alloca i32, align 4
  %6 = alloca ptr, align 8
  store i32 %0, ptr %4, align 4, !tbaa !7
  store i32 %1, ptr %5, align 4, !tbaa !7
  store ptr %2, ptr %6, align 8, !tbaa !22
  %7 = load i32, ptr %4, align 4, !tbaa !7
  %8 = load i32, ptr %5, align 4, !tbaa !7
  %9 = udiv i32 %7, %8
  %10 = load ptr, ptr %6, align 8, !tbaa !22
  store i32 %9, ptr %10, align 4, !tbaa !7
  %11 = load i32, ptr %4, align 4, !tbaa !7
  %12 = load ptr, ptr %6, align 8, !tbaa !22
  %13 = load i32, ptr %12, align 4, !tbaa !7
  %14 = load i32, ptr %5, align 4, !tbaa !7
  %15 = mul i32 %13, %14
  %16 = sub i32 %11, %15
  ret i32 %16
}

; Function Attrs: nounwind uwtable
define internal i32 @test_bio_base64_corner_case_bug(i32 noundef %0) #0 {
  %2 = alloca i32, align 4
  %3 = alloca i32, align 4
  %4 = alloca %struct.test_case, align 8
  %5 = alloca i32, align 4
  %6 = alloca i32, align 4
  store i32 %0, ptr %3, align 4, !tbaa !7
  call void @llvm.lifetime.start.p0(i64 40, ptr %4) #6
  call void @llvm.lifetime.start.p0(i64 4, ptr %5) #6
  %7 = load i32, ptr %3, align 4, !tbaa !7
  store i32 %7, ptr %5, align 4, !tbaa !7
  %8 = load i32, ptr %5, align 4, !tbaa !7
  %9 = call i32 @quotrem(i32 noundef %8, i32 noundef 2, ptr noundef %5)
  %10 = getelementptr inbounds nuw %struct.test_case, ptr %4, i32 0, i32 5
  store i32 %9, ptr %10, align 8, !tbaa !9
  %11 = load i32, ptr %5, align 4, !tbaa !7
  %12 = call i32 @quotrem(i32 noundef %11, i32 noundef 2, ptr noundef %5)
  %13 = getelementptr inbounds nuw %struct.test_case, ptr %4, i32 0, i32 6
  store i32 %12, ptr %13, align 4, !tbaa !13
  %14 = load i32, ptr %5, align 4, !tbaa !7
  %15 = icmp ne i32 %14, 0
  br i1 %15, label %16, label %20

16:                                               ; preds = %1
  %17 = load ptr, ptr @stderr, align 8, !tbaa !14
  %18 = load i32, ptr %3, align 4, !tbaa !7
  %19 = call i32 (ptr, ptr, ...) @fprintf(ptr noundef %17, ptr noundef @.str.2, i32 noundef %18) #6
  store i32 0, ptr %2, align 4
  store i32 1, ptr %6, align 4
  br label %27

20:                                               ; preds = %1
  %21 = getelementptr inbounds nuw %struct.test_case, ptr %4, i32 0, i32 0
  store ptr @.str.22, ptr %21, align 8, !tbaa !17
  %22 = getelementptr inbounds nuw %struct.test_case, ptr %4, i32 0, i32 1
  store ptr @.str.23, ptr %22, align 8, !tbaa !18
  %23 = getelementptr inbounds nuw %struct.test_case, ptr %4, i32 0, i32 4
  store ptr @.str.5, ptr %23, align 8, !tbaa !21
  %24 = getelementptr inbounds nuw %struct.test_case, ptr %4, i32 0, i32 2
  store i32 6, ptr %24, align 8, !tbaa !19
  %25 = getelementptr inbounds nuw %struct.test_case, ptr %4, i32 0, i32 3
  store i32 0, ptr %25, align 4, !tbaa !20
  %26 = call i32 @generic_case(ptr noundef %4, i32 noundef 0)
  store i32 %26, ptr %2, align 4
  store i32 1, ptr %6, align 4
  br label %27

27:                                               ; preds = %20, %16
  call void @llvm.lifetime.end.p0(i64 4, ptr %5) #6
  call void @llvm.lifetime.end.p0(i64 40, ptr %4) #6
  %28 = load i32, ptr %2, align 4
  ret i32 %28
}