; Function Attrs: nounwind uwtable
define internal range(i32 0, 2) i32 @test_bio_base64_corner_case_bug(i32 noundef %0) #0 {
  %2 = alloca %struct.test_case, align 8
  call void @llvm.lifetime.start.p0(i64 40, ptr nonnull %2) #8
  %3 = lshr i32 %0, 1
  %4 = and i32 %0, 1
  %5 = getelementptr inbounds nuw i8, ptr %2, i64 32
  store i32 %4, ptr %5, align 8, !tbaa !7
  %6 = and i32 %3, 1
  %7 = getelementptr inbounds nuw i8, ptr %2, i64 36
  store i32 %6, ptr %7, align 4, !tbaa !12
  %.not = icmp ult i32 %0, 4
  br i1 %.not, label %11, label %8

8:                                                ; preds = %1
  %9 = load ptr, ptr @stderr, align 8, !tbaa !13
  %10 = tail call i32 (ptr, ptr, ...) @fprintf(ptr noundef %9, ptr noundef nonnull @.str.2, i32 noundef %0) #9
  br label %17

11:                                               ; preds = %1
  store ptr @.str.22, ptr %2, align 8, !tbaa !16
  %12 = getelementptr inbounds nuw i8, ptr %2, i64 8
  store ptr @.str.23, ptr %12, align 8, !tbaa !17
  %13 = getelementptr inbounds nuw i8, ptr %2, i64 24
  store ptr @.str.5, ptr %13, align 8, !tbaa !21
  %14 = getelementptr inbounds nuw i8, ptr %2, i64 16
  store i32 6, ptr %14, align 8, !tbaa !19
  %15 = getelementptr inbounds nuw i8, ptr %2, i64 20
  store i32 0, ptr %15, align 4, !tbaa !20
  %16 = call fastcc i32 @generic_case(ptr noundef %2)
  br label %17

17:                                               ; preds = %11, %8
  %.0 = phi i32 [ 0, %8 ], [ %16, %11 ]
  call void @llvm.lifetime.end.p0(i64 40, ptr nonnull %2) #8
  ret i32 %.0
}